; ModuleID = '16/70.c'
source_filename = "16/70.c"
target datalayout = "e-m:e-p270:32:32-p271:32:32-p272:64:64-i64:64-f80:128-n8:16:32:64-S128"
target triple = "x86_64-pc-linux-gnu"

@.str = private unnamed_addr constant [3 x i8] c"%s\00", align 1

; Function Attrs: noinline nounwind uwtable
define dso_local i32 @main() #0 {
  %1 = alloca i32, align 4
  %2 = alloca i32, align 4
  %3 = alloca i32, align 4
  %4 = alloca i32, align 4
  %5 = alloca [10001 x i8], align 16
  store i32 0, i32* %1, align 4
  store i32 0, i32* %2, align 4
  %6 = getelementptr inbounds [10001 x i8], [10001 x i8]* %5, i64 0, i64 0
  %7 = call i32 (i8*, ...) @__isoc99_scanf(i8* getelementptr inbounds ([3 x i8], [3 x i8]* @.str, i64 0, i64 0), i8* %6)
  store i32 0, i32* %3, align 4
  br label %8

8:                                                ; preds = %20, %0
  %9 = load i32, i32* %3, align 4
  %10 = sext i32 %9 to i64
  %11 = getelementptr inbounds [10001 x i8], [10001 x i8]* %5, i64 0, i64 %10
  %12 = load i8, i8* %11, align 1
  %13 = sext i8 %12 to i32
  %14 = icmp ne i32 %13, 0
  br i1 %14, label %15, label %18

15:                                               ; preds = %8
  %16 = load i32, i32* %2, align 4
  %17 = add nsw i32 %16, 1
  store i32 %17, i32* %2, align 4
  br label %19

18:                                               ; preds = %8
  br label %23

19:                                               ; preds = %15
  br label %20

20:                                               ; preds = %19
  %21 = load i32, i32* %3, align 4
  %22 = add nsw i32 %21, 1
  store i32 %22, i32* %3, align 4
  br label %8

23:                                               ; preds = %18
  %24 = load i32, i32* %2, align 4
  %25 = srem i32 %24, 2
  %26 = icmp eq i32 %25, 0
  br i1 %26, label %27, label %61

27:                                               ; preds = %23
  store i32 0, i32* %3, align 4
  br label %28

28:                                               ; preds = %57, %27
  %29 = load i32, i32* %3, align 4
  %30 = load i32, i32* %2, align 4
  %31 = sdiv i32 %30, 2
  %32 = icmp slt i32 %29, %31
  br i1 %32, label %33, label %60

33:                                               ; preds = %28
  %34 = load i32, i32* %3, align 4
  %35 = sext i32 %34 to i64
  %36 = getelementptr inbounds [10001 x i8], [10001 x i8]* %5, i64 0, i64 %35
  %37 = load i8, i8* %36, align 1
  %38 = sext i8 %37 to i32
  store i32 %38, i32* %4, align 4
  %39 = load i32, i32* %2, align 4
  %40 = sub nsw i32 %39, 1
  %41 = load i32, i32* %3, align 4
  %42 = sub nsw i32 %40, %41
  %43 = sext i32 %42 to i64
  %44 = getelementptr inbounds [10001 x i8], [10001 x i8]* %5, i64 0, i64 %43
  %45 = load i8, i8* %44, align 1
  %46 = load i32, i32* %3, align 4
  %47 = sext i32 %46 to i64
  %48 = getelementptr inbounds [10001 x i8], [10001 x i8]* %5, i64 0, i64 %47
  store i8 %45, i8* %48, align 1
  %49 = load i32, i32* %4, align 4
  %50 = trunc i32 %49 to i8
  %51 = load i32, i32* %2, align 4
  %52 = sub nsw i32 %51, 1
  %53 = load i32, i32* %3, align 4
  %54 = sub nsw i32 %52, %53
  %55 = sext i32 %54 to i64
  %56 = getelementptr inbounds [10001 x i8], [10001 x i8]* %5, i64 0, i64 %55
  store i8 %50, i8* %56, align 1
  br label %57

57:                                               ; preds = %33
  %58 = load i32, i32* %3, align 4
  %59 = add nsw i32 %58, 1
  store i32 %59, i32* %3, align 4
  br label %28

60:                                               ; preds = %28
  br label %96

61:                                               ; preds = %23
  store i32 0, i32* %3, align 4
  br label %62

62:                                               ; preds = %92, %61
  %63 = load i32, i32* %3, align 4
  %64 = load i32, i32* %2, align 4
  %65 = sub nsw i32 %64, 1
  %66 = sdiv i32 %65, 2
  %67 = icmp slt i32 %63, %66
  br i1 %67, label %68, label %95

68:                                               ; preds = %62
  %69 = load i32, i32* %3, align 4
  %70 = sext i32 %69 to i64
  %71 = getelementptr inbounds [10001 x i8], [10001 x i8]* %5, i64 0, i64 %70
  %72 = load i8, i8* %71, align 1
  %73 = sext i8 %72 to i32
  store i32 %73, i32* %4, align 4
  %74 = load i32, i32* %2, align 4
  %75 = sub nsw i32 %74, 1
  %76 = load i32, i32* %3, align 4
  %77 = sub nsw i32 %75, %76
  %78 = sext i32 %77 to i64
  %79 = getelementptr inbounds [10001 x i8], [10001 x i8]* %5, i64 0, i64 %78
  %80 = load i8, i8* %79, align 1
  %81 = load i32, i32* %3, align 4
  %82 = sext i32 %81 to i64
  %83 = getelementptr inbounds [10001 x i8], [10001 x i8]* %5, i64 0, i64 %82
  store i8 %80, i8* %83, align 1
  %84 = load i32, i32* %4, align 4
  %85 = trunc i32 %84 to i8
  %86 = load i32, i32* %2, align 4
  %87 = sub nsw i32 %86, 1
  %88 = load i32, i32* %3, align 4
  %89 = sub nsw i32 %87, %88
  %90 = sext i32 %89 to i64
  %91 = getelementptr inbounds [10001 x i8], [10001 x i8]* %5, i64 0, i64 %90
  store i8 %85, i8* %91, align 1
  br label %92

92:                                               ; preds = %68
  %93 = load i32, i32* %3, align 4
  %94 = add nsw i32 %93, 1
  store i32 %94, i32* %3, align 4
  br label %62

95:                                               ; preds = %62
  br label %96

96:                                               ; preds = %95, %60
  %97 = getelementptr inbounds [10001 x i8], [10001 x i8]* %5, i64 0, i64 0
  %98 = call i32 (i8*, ...) @printf(i8* getelementptr inbounds ([3 x i8], [3 x i8]* @.str, i64 0, i64 0), i8* %97)
  %99 = call i32 @getchar()
  %100 = call i32 @getchar()
  %101 = call i32 @getchar()
  %102 = load i32, i32* %1, align 4
  ret i32 %102
}

declare dso_local i32 @__isoc99_scanf(i8*, ...) #1

declare dso_local i32 @printf(i8*, ...) #1

declare dso_local i32 @getchar() #1


!llvm.module.flags = !{!0}
!llvm.ident = !{!1}

!0 = !{i32 1, !"wchar_size", i32 4}
!1 = !{!"clang version 10.0.0-4ubuntu1 "}
